; Function Attrs: mustprogress nofree norecurse nosync nounwind memory(readwrite, inaccessiblemem: none) uwtable
define noundef i32 @_ZNK6casadi5Split4evalEPPKdPPdPxS4_(ptr nocapture noundef nonnull readonly align 8 dereferenceable(112) %0, ptr nocapture noundef readonly %1, ptr nocapture noundef readonly %2, ptr nocapture readnone %3, ptr nocapture readnone %4) unnamed_addr #7 align 2 {
  %6 = getelementptr inbounds i8, ptr %0, i64 64
  %7 = getelementptr inbounds i8, ptr %0, i64 72
  %8 = load ptr, ptr %7, align 8
  %9 = load ptr, ptr %6, align 8
  %10 = ptrtoint ptr %8 to i64
  %11 = ptrtoint ptr %9 to i64
  %12 = sub i64 %10, %11
  %13 = ashr exact i64 %12, 3
  %14 = icmp sgt i64 %13, 1
  br i1 %14, label %.lr.ph.preheader.i, label %_ZNK6casadi5Split8eval_genIdEEiPPKT_PPS2_PxS6_.exit

.lr.ph.preheader.i:                               ; preds = %5
  %15 = add nsw i64 %13, -2
  br label %.lr.ph.i

.lr.ph.i:                                         ; preds = %_ZSt4copyIPKdPdET0_T_S4_S3_.exit.i, %.lr.ph.preheader.i
  %.014.i = phi i64 [ %16, %_ZSt4copyIPKdPdET0_T_S4_S3_.exit.i ], [ 0, %.lr.ph.preheader.i ]
  %16 = add nuw nsw i64 %.014.i, 1
  %17 = getelementptr inbounds ptr, ptr %2, i64 %.014.i
  %18 = load ptr, ptr %17, align 8
  %.not.i = icmp eq ptr %18, null
  br i1 %.not.i, label %_ZSt4copyIPKdPdET0_T_S4_S3_.exit.i, label %19

19:                                               ; preds = %.lr.ph.i
  %20 = load ptr, ptr %6, align 8
  %21 = getelementptr inbounds i64, ptr %20, i64 %16
  %22 = getelementptr inbounds i64, ptr %20, i64 %.014.i
  %23 = load i64, ptr %22, align 8
  %24 = load i64, ptr %21, align 8
  %.not.i.i.i.i.i.i = icmp eq i64 %24, %23
  br i1 %.not.i.i.i.i.i.i, label %_ZSt4copyIPKdPdET0_T_S4_S3_.exit.i, label %25

25:                                               ; preds = %19
  %26 = load ptr, ptr %1, align 8
  %27 = getelementptr inbounds double, ptr %26, i64 %23
  %28 = getelementptr inbounds double, ptr %26, i64 %24
  %29 = ptrtoint ptr %28 to i64
  %30 = ptrtoint ptr %27 to i64
  %31 = sub i64 %29, %30
  tail call void @llvm.memmove.p0.p0.i64(ptr nonnull align 8 %18, ptr align 8 %27, i64 %31, i1 false)
  br label %_ZSt4copyIPKdPdET0_T_S4_S3_.exit.i

_ZSt4copyIPKdPdET0_T_S4_S3_.exit.i:               ; preds = %25, %19, %.lr.ph.i
  %exitcond.not.i = icmp eq i64 %.014.i, %15
  br i1 %exitcond.not.i, label %_ZNK6casadi5Split8eval_genIdEEiPPKT_PPS2_PxS6_.exit, label %.lr.ph.i, !llvm.loop !12

_ZNK6casadi5Split8eval_genIdEEiPPKT_PPS2_PxS6_.exit: ; preds = %_ZSt4copyIPKdPdET0_T_S4_S3_.exit.i, %5
  ret i32 0
}